; Function Attrs: mustprogress uwtable
define hidden void @_ZN6Assimp13glTF2Exporter9GetMatTexERK10aiMaterialRN5glTF220OcclusionTextureInfoE13aiTextureTypej(ptr noundef nonnull align 8 dereferenceable(120) %this, ptr noundef nonnull align 8 dereferenceable(16) %mat, ptr noundef nonnull align 8 dereferenceable(52) %prop, i32 noundef %tt, i32 noundef %slot) local_unnamed_addr #2 align 2 {
entry:
  %texCoord = getelementptr inbounds i8, ptr %prop, i64 20
  tail call void @_ZN6Assimp13glTF2Exporter9GetMatTexERK10aiMaterialRN10glTFCommon3RefIN5glTF27TextureEEERj13aiTextureTypej(ptr noundef nonnull align 8 dereferenceable(120) %this, ptr noundef nonnull align 8 dereferenceable(16) %mat, ptr noundef nonnull align 8 dereferenceable(12) %prop, ptr noundef nonnull align 4 dereferenceable(4) %texCoord, i32 noundef %tt, i32 noundef %slot)
  %0 = load ptr, ptr %prop, align 8
  %cmp.not.i = icmp eq ptr %0, null
  br i1 %cmp.not.i, label %if.end, label %_ZNK10glTFCommon3RefIN5glTF27TextureEEcvbEv.exit

_ZNK10glTFCommon3RefIN5glTF27TextureEEcvbEv.exit: ; preds = %entry
  %index.i = getelementptr inbounds i8, ptr %prop, i64 8
  %1 = load i32, ptr %index.i, align 8
  %conv.i = zext i32 %1 to i64
  %_M_finish.i.i = getelementptr inbounds i8, ptr %0, i64 8
  %2 = load ptr, ptr %_M_finish.i.i, align 8
  %3 = load ptr, ptr %0, align 8
  %sub.ptr.lhs.cast.i.i = ptrtoint ptr %2 to i64
  %sub.ptr.rhs.cast.i.i = ptrtoint ptr %3 to i64
  %sub.ptr.sub.i.i = sub i64 %sub.ptr.lhs.cast.i.i, %sub.ptr.rhs.cast.i.i
  %sub.ptr.div.i.i = ashr exact i64 %sub.ptr.sub.i.i, 3
  %cmp3.i = icmp ugt i64 %sub.ptr.div.i.i, %conv.i
  br i1 %cmp3.i, label %if.then, label %if.end

if.then:                                          ; preds = %_ZNK10glTFCommon3RefIN5glTF27TextureEEcvbEv.exit
  %strength = getelementptr inbounds i8, ptr %prop, i64 48
  tail call void @_ZN6Assimp13glTF2Exporter13GetMatTexPropERK10aiMaterialRfPKc13aiTextureTypej(ptr nonnull align 8 poison, ptr noundef nonnull align 8 dereferenceable(16) %mat, ptr noundef nonnull align 4 dereferenceable(4) %strength, ptr noundef nonnull @.str.25, i32 noundef %tt, i32 noundef %slot)
  br label %if.end

if.end:                                           ; preds = %entry, %if.then, %_ZNK10glTFCommon3RefIN5glTF27TextureEEcvbEv.exit
  ret void
}